target datalayout = "e-m:e-p270:32:32-p271:32:32-p272:64:64-i64:64-i128:128-f80:128-n8:16:32:64-S128"
target triple = "x86_64-pc-linux-gnu"

%class.FindLineEdit = type <{ %class.QLineEdit, i8, [7 x i8] }>
%class.QLineEdit = type { %class.QWidget }
%class.QWidget = type { %class.QObject, %class.QPaintDevice.base, ptr }
%class.QObject = type { ptr, %class.QScopedPointer }
%class.QScopedPointer = type { ptr }
%class.QPaintDevice.base = type <{ ptr, i16 }>

; Function Attrs: mustprogress null_pointer_is_valid sspstrong uwtable
define void @_ZN12FindLineEdit13setUseTextualEv(ptr noundef align 8 dereferenceable_or_null(41) %0) #0 align 2 {
  %2 = alloca ptr, align 8
  store ptr %0, ptr %2, align 8
  %3 = load ptr, ptr %2, align 8
  %4 = getelementptr inbounds nuw %class.FindLineEdit, ptr %3, i32 0, i32 1
  store i8 0, ptr %4, align 8
  call void @_ZN12FindLineEdit12validateTextEv(ptr noundef align 8 dereferenceable_or_null(41) %3)
  %5 = getelementptr inbounds nuw %class.FindLineEdit, ptr %3, i32 0, i32 1
  %6 = load i8, ptr %5, align 8, !range !6, !noundef !7
  %7 = trunc i8 %6 to i1
  call void @_ZN12FindLineEdit12useRegexFindEb(ptr noundef align 8 dereferenceable_or_null(41) %3, i1 noundef zeroext %7)
  ret void
}